; Function Attrs: nounwind uwtable
define i32 @Abc_NtkGetCubeNum(ptr noundef readonly captures(none) %0) local_unnamed_addr #0 {
  %2 = getelementptr inbounds nuw i8, ptr %0, i64 32
  %3 = load ptr, ptr %2, align 8
  %4 = getelementptr i8, ptr %3, i64 4
  %.val15 = load i32, ptr %4, align 4
  %5 = icmp sgt i32 %.val15, 0
  br i1 %5, label %.lr.ph, label %.critedge

.lr.ph:                                           ; preds = %1, %21
  %indvars.iv = phi i64 [ %indvars.iv.next, %21 ], [ 0, %1 ]
  %6 = phi ptr [ %22, %21 ], [ %3, %1 ]
  %.017 = phi i32 [ %.1, %21 ], [ 0, %1 ]
  %7 = getelementptr i8, ptr %6, i64 8
  %.val13.val = load ptr, ptr %7, align 8
  %8 = getelementptr inbounds nuw ptr, ptr %.val13.val, i64 %indvars.iv
  %9 = load ptr, ptr %8, align 8
  %10 = icmp eq ptr %9, null
  br i1 %10, label %21, label %11

11:                                               ; preds = %.lr.ph
  %12 = getelementptr i8, ptr %9, i64 20
  %.val14 = load i32, ptr %12, align 4
  %13 = and i32 %.val14, 15
  %.not = icmp eq i32 %13, 7
  br i1 %.not, label %14, label %21

14:                                               ; preds = %11
  %15 = tail call i32 @Abc_NodeIsConst(ptr noundef nonnull %9) #28
  %.not12 = icmp eq i32 %15, 0
  br i1 %.not12, label %16, label %21

16:                                               ; preds = %14
  %17 = getelementptr inbounds nuw i8, ptr %9, i64 56
  %18 = load ptr, ptr %17, align 8
  %19 = tail call i32 @Abc_SopGetCubeNum(ptr noundef %18) #28
  %20 = add nsw i32 %19, %.017
  br label %21

21:                                               ; preds = %16, %11, %.lr.ph, %14
  %.1 = phi i32 [ %.017, %.lr.ph ], [ %.017, %14 ], [ %20, %16 ], [ %.017, %11 ]
  %indvars.iv.next = add nuw nsw i64 %indvars.iv, 1
  %22 = load ptr, ptr %2, align 8
  %23 = getelementptr i8, ptr %22, i64 4
  %.val = load i32, ptr %23, align 4
  %24 = sext i32 %.val to i64
  %25 = icmp slt i64 %indvars.iv.next, %24
  br i1 %25, label %.lr.ph, label %.critedge, !llvm.loop !14

.critedge:                                        ; preds = %21, %1
  %.0.lcssa = phi i32 [ 0, %1 ], [ %.1, %21 ]
  ret i32 %.0.lcssa
}